; Function Attrs: nofree nounwind uwtable
define noalias noundef ptr @Acec_TreeFindPoints(ptr noundef readonly captures(none) %0, ptr noundef readonly captures(none) %1, ptr noundef readonly %2) local_unnamed_addr #2 {
  %4 = getelementptr i8, ptr %0, i64 24
  %.val44 = load i32, ptr %4, align 8
  %5 = shl nsw i32 %.val44, 1
  %6 = tail call noalias dereferenceable_or_null(16) ptr @malloc(i64 noundef 16) #22
  %7 = add i32 %5, -1
  %or.cond.i.i = icmp ult i32 %7, 15
  %spec.store.select.i.i = select i1 %or.cond.i.i, i32 16, i32 %5
  %8 = getelementptr inbounds nuw i8, ptr %6, i64 4
  store i32 %spec.store.select.i.i, ptr %6, align 8
  %.not.i.i = icmp eq i32 %spec.store.select.i.i, 0
  br i1 %.not.i.i, label %Vec_IntAlloc.exit.thread.i, label %Vec_IntAlloc.exit.i

Vec_IntAlloc.exit.thread.i:                       ; preds = %3
  %9 = getelementptr inbounds nuw i8, ptr %6, i64 8
  store ptr null, ptr %9, align 8
  store i32 %5, ptr %8, align 4
  br label %Vec_IntStartFull.exit

Vec_IntAlloc.exit.i:                              ; preds = %3
  %10 = sext i32 %spec.store.select.i.i to i64
  %11 = shl nsw i64 %10, 2
  %12 = tail call noalias ptr @malloc(i64 noundef %11) #22
  %13 = getelementptr inbounds nuw i8, ptr %6, i64 8
  store ptr %12, ptr %13, align 8
  store i32 %5, ptr %8, align 4
  %.not.i = icmp eq ptr %12, null
  br i1 %.not.i, label %Vec_IntStartFull.exit, label %14

14:                                               ; preds = %Vec_IntAlloc.exit.i
  %15 = sext i32 %5 to i64
  %16 = shl nsw i64 %15, 2
  tail call void @llvm.memset.p0.i64(ptr nonnull align 4 %12, i8 -1, i64 %16, i1 false)
  br label %Vec_IntStartFull.exit

Vec_IntStartFull.exit:                            ; preds = %Vec_IntAlloc.exit.thread.i, %Vec_IntAlloc.exit.i, %14
  %.val.i = phi ptr [ null, %Vec_IntAlloc.exit.thread.i ], [ null, %Vec_IntAlloc.exit.i ], [ %12, %14 ]
  %17 = getelementptr i8, ptr %1, i64 4
  %.val61 = load i32, ptr %17, align 4
  %18 = icmp sgt i32 %.val61, 0
  br i1 %18, label %.lr.ph, label %._crit_edge

.lr.ph:                                           ; preds = %Vec_IntStartFull.exit
  %.not = icmp eq ptr %2, null
  %19 = getelementptr i8, ptr %1, i64 8
  %20 = getelementptr i8, ptr %2, i64 8
  %.val39.pre.pre = load ptr, ptr %19, align 8
  br label %21

21:                                               ; preds = %.lr.ph, %Acec_TreeAddInOutPoint.exit60
  %indvars.iv = phi i64 [ 0, %.lr.ph ], [ %indvars.iv.next, %Acec_TreeAddInOutPoint.exit60 ]
  %22 = phi i32 [ 0, %.lr.ph ], [ %95, %Acec_TreeAddInOutPoint.exit60 ]
  %.pre = zext nneg i32 %22 to i64
  br i1 %.not, label %._crit_edge65, label %23

23:                                               ; preds = %21
  %24 = getelementptr inbounds nuw i32, ptr %.val39.pre.pre, i64 %.pre
  %25 = getelementptr inbounds nuw i8, ptr %24, i64 12
  %26 = load i32, ptr %25, align 4
  %.val43 = load ptr, ptr %20, align 8
  %27 = ashr i32 %26, 5
  %28 = sext i32 %27 to i64
  %29 = getelementptr inbounds i32, ptr %.val43, i64 %28
  %30 = load i32, ptr %29, align 4
  %31 = and i32 %26, 31
  %32 = shl nuw i32 1, %31
  %33 = and i32 %30, %32
  %.not33 = icmp eq i32 %33, 0
  br i1 %.not33, label %34, label %Acec_TreeAddInOutPoint.exit60

34:                                               ; preds = %23
  %35 = getelementptr inbounds nuw i8, ptr %24, i64 16
  %36 = load i32, ptr %35, align 4
  %37 = ashr i32 %36, 5
  %38 = sext i32 %37 to i64
  %39 = getelementptr inbounds i32, ptr %.val43, i64 %38
  %40 = load i32, ptr %39, align 4
  %41 = and i32 %36, 31
  %42 = shl nuw i32 1, %41
  %43 = and i32 %42, %40
  %.not34 = icmp eq i32 %43, 0
  br i1 %.not34, label %._crit_edge65, label %Acec_TreeAddInOutPoint.exit60

._crit_edge65:                                    ; preds = %21, %34
  %44 = getelementptr inbounds nuw i32, ptr %.val39.pre.pre, i64 %.pre
  %45 = load i32, ptr %44, align 4
  %46 = shl nsw i32 %45, 1
  %47 = sext i32 %46 to i64
  %48 = getelementptr inbounds i32, ptr %.val.i, i64 %47
  %49 = load i32, ptr %48, align 4
  %50 = icmp eq i32 %49, -1
  %51 = trunc nuw nsw i64 %indvars.iv to i32
  br i1 %50, label %.sink.split.i, label %52

52:                                               ; preds = %._crit_edge65
  %53 = icmp sgt i32 %49, -1
  br i1 %53, label %.sink.split.i, label %Acec_TreeAddInOutPoint.exit

.sink.split.i:                                    ; preds = %52, %._crit_edge65
  %.sink.i = phi i32 [ %51, %._crit_edge65 ], [ -2, %52 ]
  store i32 %.sink.i, ptr %48, align 4
  br label %Acec_TreeAddInOutPoint.exit

Acec_TreeAddInOutPoint.exit:                      ; preds = %52, %.sink.split.i
  %54 = or disjoint i32 %22, 1
  %55 = zext nneg i32 %54 to i64
  %56 = getelementptr inbounds nuw i32, ptr %.val39.pre.pre, i64 %55
  %57 = load i32, ptr %56, align 4
  %58 = shl nsw i32 %57, 1
  %59 = sext i32 %58 to i64
  %60 = getelementptr inbounds i32, ptr %.val.i, i64 %59
  %61 = load i32, ptr %60, align 4
  %62 = icmp eq i32 %61, -1
  br i1 %62, label %.sink.split.i46, label %63

63:                                               ; preds = %Acec_TreeAddInOutPoint.exit
  %64 = icmp sgt i32 %61, -1
  br i1 %64, label %.sink.split.i46, label %Acec_TreeAddInOutPoint.exit48

.sink.split.i46:                                  ; preds = %63, %Acec_TreeAddInOutPoint.exit
  %.sink.i47 = phi i32 [ %51, %Acec_TreeAddInOutPoint.exit ], [ -2, %63 ]
  store i32 %.sink.i47, ptr %60, align 4
  br label %Acec_TreeAddInOutPoint.exit48

Acec_TreeAddInOutPoint.exit48:                    ; preds = %63, %.sink.split.i46
  %65 = getelementptr inbounds nuw i8, ptr %44, i64 8
  %66 = load i32, ptr %65, align 4
  %67 = shl nsw i32 %66, 1
  %68 = sext i32 %67 to i64
  %69 = getelementptr inbounds i32, ptr %.val.i, i64 %68
  %70 = load i32, ptr %69, align 4
  %71 = icmp eq i32 %70, -1
  br i1 %71, label %.sink.split.i50, label %72

72:                                               ; preds = %Acec_TreeAddInOutPoint.exit48
  %73 = icmp sgt i32 %70, -1
  br i1 %73, label %.sink.split.i50, label %Acec_TreeAddInOutPoint.exit52

.sink.split.i50:                                  ; preds = %72, %Acec_TreeAddInOutPoint.exit48
  %.sink.i51 = phi i32 [ %51, %Acec_TreeAddInOutPoint.exit48 ], [ -2, %72 ]
  store i32 %.sink.i51, ptr %69, align 4
  br label %Acec_TreeAddInOutPoint.exit52

Acec_TreeAddInOutPoint.exit52:                    ; preds = %72, %.sink.split.i50
  %74 = getelementptr inbounds nuw i8, ptr %44, i64 12
  %75 = load i32, ptr %74, align 4
  %76 = shl nsw i32 %75, 1
  %77 = or disjoint i32 %76, 1
  %78 = sext i32 %77 to i64
  %79 = getelementptr inbounds i32, ptr %.val.i, i64 %78
  %80 = load i32, ptr %79, align 4
  %81 = icmp eq i32 %80, -1
  br i1 %81, label %.sink.split.i54, label %82

82:                                               ; preds = %Acec_TreeAddInOutPoint.exit52
  %83 = icmp sgt i32 %80, -1
  br i1 %83, label %.sink.split.i54, label %Acec_TreeAddInOutPoint.exit56

.sink.split.i54:                                  ; preds = %82, %Acec_TreeAddInOutPoint.exit52
  %.sink.i55 = phi i32 [ %51, %Acec_TreeAddInOutPoint.exit52 ], [ -2, %82 ]
  store i32 %.sink.i55, ptr %79, align 4
  br label %Acec_TreeAddInOutPoint.exit56

Acec_TreeAddInOutPoint.exit56:                    ; preds = %82, %.sink.split.i54
  %84 = getelementptr inbounds nuw i8, ptr %44, i64 16
  %85 = load i32, ptr %84, align 4
  %86 = shl nsw i32 %85, 1
  %87 = or disjoint i32 %86, 1
  %88 = sext i32 %87 to i64
  %89 = getelementptr inbounds i32, ptr %.val.i, i64 %88
  %90 = load i32, ptr %89, align 4
  %91 = icmp eq i32 %90, -1
  br i1 %91, label %.sink.split.i58, label %92

92:                                               ; preds = %Acec_TreeAddInOutPoint.exit56
  %93 = icmp sgt i32 %90, -1
  br i1 %93, label %.sink.split.i58, label %Acec_TreeAddInOutPoint.exit60

.sink.split.i58:                                  ; preds = %92, %Acec_TreeAddInOutPoint.exit56
  %.sink.i59 = phi i32 [ %51, %Acec_TreeAddInOutPoint.exit56 ], [ -2, %92 ]
  store i32 %.sink.i59, ptr %89, align 4
  br label %Acec_TreeAddInOutPoint.exit60

Acec_TreeAddInOutPoint.exit60:                    ; preds = %.sink.split.i58, %92, %23, %34
  %indvars.iv.next = add nuw nsw i64 %indvars.iv, 1
  %94 = trunc i64 %indvars.iv.next to i32
  %95 = mul i32 %94, 6
  %96 = icmp slt i32 %95, %.val61
  br i1 %96, label %21, label %._crit_edge, !llvm.loop !37

._crit_edge:                                      ; preds = %Acec_TreeAddInOutPoint.exit60, %Vec_IntStartFull.exit
  ret ptr %6
}